target datalayout = "e-m:e-p270:32:32-p271:32:32-p272:64:64-i64:64-i128:128-f80:128-n8:16:32:64-S128"
target triple = "x86_64-pc-linux-gnu"

%struct.SampleEntry = type { ptr, ptr, ptr }

@g_sampleEntries = dso_local global [256 x %struct.SampleEntry] zeroinitializer, align 16
@g_sampleCount = dso_local global i32 0, align 4

; Function Attrs: mustprogress nounwind uwtable
define dso_local noundef i32 @_Z14RegisterSamplePKcS0_PFP6SampleR8SettingsE(ptr noundef %0, ptr noundef %1, ptr noundef %2) #7 {
  %4 = alloca i32, align 4
  %5 = alloca ptr, align 8
  %6 = alloca ptr, align 8
  %7 = alloca ptr, align 8
  %8 = alloca i32, align 4
  %9 = alloca %struct.SampleEntry, align 8
  %10 = alloca i32, align 4
  store ptr %0, ptr %5, align 8, !tbaa !70
  store ptr %1, ptr %6, align 8, !tbaa !70
  store ptr %2, ptr %7, align 8, !tbaa !67
  call void @llvm.lifetime.start.p0(i64 4, ptr %8) #19
  %11 = load i32, ptr @g_sampleCount, align 4, !tbaa !11
  store i32 %11, ptr %8, align 4, !tbaa !11
  %12 = load i32, ptr %8, align 4, !tbaa !11
  %13 = icmp slt i32 %12, 256
  br i1 %13, label %14, label %27

14:                                               ; preds = %3
  call void @llvm.lifetime.start.p0(i64 24, ptr %9) #19
  %15 = getelementptr inbounds nuw %struct.SampleEntry, ptr %9, i32 0, i32 0
  %16 = load ptr, ptr %5, align 8, !tbaa !70
  store ptr %16, ptr %15, align 8, !tbaa !226
  %17 = getelementptr inbounds nuw %struct.SampleEntry, ptr %9, i32 0, i32 1
  %18 = load ptr, ptr %6, align 8, !tbaa !70
  store ptr %18, ptr %17, align 8, !tbaa !228
  %19 = getelementptr inbounds nuw %struct.SampleEntry, ptr %9, i32 0, i32 2
  %20 = load ptr, ptr %7, align 8, !tbaa !67
  store ptr %20, ptr %19, align 8, !tbaa !229
  %21 = load i32, ptr %8, align 4, !tbaa !11
  %22 = sext i32 %21 to i64
  %23 = getelementptr inbounds [256 x %struct.SampleEntry], ptr @g_sampleEntries, i64 0, i64 %22
  call void @llvm.memcpy.p0.p0.i64(ptr align 8 %23, ptr align 8 %9, i64 24, i1 false), !tbaa.struct !230
  call void @llvm.lifetime.end.p0(i64 24, ptr %9) #19
  %24 = load i32, ptr @g_sampleCount, align 4, !tbaa !11
  %25 = add nsw i32 %24, 1
  store i32 %25, ptr @g_sampleCount, align 4, !tbaa !11
  %26 = load i32, ptr %8, align 4, !tbaa !11
  store i32 %26, ptr %4, align 4
  store i32 1, ptr %10, align 4
  br label %28

27:                                               ; preds = %3
  store i32 -1, ptr %4, align 4
  store i32 1, ptr %10, align 4
  br label %28

28:                                               ; preds = %27, %14
  call void @llvm.lifetime.end.p0(i64 4, ptr %8) #19
  %29 = load i32, ptr %4, align 4
  ret i32 %29
}