; Function Attrs: mustprogress nofree norecurse nosync nounwind willreturn memory(readwrite, argmem: none, inaccessiblemem: none) uwtable
define dso_local noundef range(i32 -2147483648, 256) i32 @_Z14RegisterSamplePKcS0_PFP6SampleR8SettingsE(ptr noundef %0, ptr noundef %1, ptr noundef %2) local_unnamed_addr #20 {
  %4 = load i32, ptr @g_sampleCount, align 4, !tbaa !45
  %5 = icmp slt i32 %4, 256
  br i1 %5, label %6, label %10

6:                                                ; preds = %3
  %7 = sext i32 %4 to i64
  %8 = getelementptr inbounds [256 x %struct.SampleEntry], ptr @g_sampleEntries, i64 0, i64 %7
  store ptr %0, ptr %8, align 8, !tbaa !199
  %.sroa.4.0..sroa_idx = getelementptr inbounds nuw i8, ptr %8, i64 8
  store ptr %1, ptr %.sroa.4.0..sroa_idx, align 8, !tbaa !199
  %.sroa.5.0..sroa_idx = getelementptr inbounds nuw i8, ptr %8, i64 16
  store ptr %2, ptr %.sroa.5.0..sroa_idx, align 8, !tbaa !201
  %9 = add nsw i32 %4, 1
  store i32 %9, ptr @g_sampleCount, align 4, !tbaa !45
  br label %10

10:                                               ; preds = %3, %6
  %.0 = phi i32 [ %4, %6 ], [ -1, %3 ]
  ret i32 %.0
}